(lp0
(lp1
I124
aI254
aI198
aI198
aI198
aI198
aI198
aI198
aI198
aI198
aI198
aI198
aI198
aI254
aI124
aI0
aa(lp2
I96
aI224
aI224
aI96
aI96
aI96
aI96
aI96
aI96
aI96
aI96
aI96
aI96
aI240
aI240
aI0
aa(lp3
I124
aI254
aI198
aI6
aI6
aI6
aI30
aI124
aI224
aI192
aI192
aI192
aI192
aI254
aI254
aI0
aa(lp4
I124
aI254
aI198
aI6
aI6
aI14
aI28
aI56
aI28
aI14
aI6
aI6
aI198
aI254
aI124
aI0
aa(lp5
I204
aI204
aI204
aI204
aI204
aI204
aI204
aI254
aI254
aI12
aI12
aI12
aI12
aI12
aI12
aI0
aa(lp6
I254
aI254
aI192
aI192
aI192
aI192
aI252
aI124
aI6
aI6
aI6
aI6
aI6
aI252
aI248
aI0
aa(lp7
I12
aI24
aI48
aI96
aI192
aI192
aI248
aI252
aI198
aI198
aI198
aI198
aI254
aI124
aI56
aI0
aa(lp8
I254
aI254
aI6
aI6
aI6
aI6
aI12
aI24
aI48
aI48
aI48
aI48
aI48
aI48
aI48
aI0
aa(lp9
I124
aI254
aI198
aI198
aI198
aI198
aI124
aI56
aI124
aI198
aI198
aI198
aI198
aI254
aI124
aI0
aa(lp10
I56
aI124
aI198
aI198
aI198
aI198
aI198
aI254
aI126
aI6
aI6
aI12
aI28
aI248
aI224
aI0
aa.