(lp0
(lp1
I0
aI0
aI0
aI0
aI0
aI0
aI0
aI0
aa(lp2
I0
aI0
aI0
aI0
aI0
aI0
aI0
aI0
aa(lp3
I0
aI0
aI0
aI0
aI0
aI0
aI0
aI0
aa(lp4
I0
aI0
aI0
aI0
aI0
aI0
aI0
aI0
aa(lp5
I0
aI0
aI0
aI0
aI0
aI0
aI0
aI0
aa(lp6
I0
aI0
aI0
aI0
aI0
aI0
aI0
aI0
aa(lp7
I0
aI0
aI0
aI0
aI0
aI0
aI0
aI0
aa(lp8
I0
aI0
aI0
aI0
aI0
aI0
aI0
aI0
aa(lp9
I0
aI0
aI0
aI0
aI0
aI0
aI0
aI0
aa(lp10
I0
aI0
aI0
aI0
aI0
aI0
aI0
aI0
aa(lp11
I0
aI0
aI0
aI0
aI0
aI0
aI0
aI0
aa(lp12
I0
aI0
aI0
aI0
aI0
aI0
aI0
aI0
aa(lp13
I0
aI0
aI0
aI0
aI0
aI0
aI0
aI0
aa(lp14
I0
aI0
aI0
aI0
aI0
aI0
aI0
aI0
aa(lp15
I0
aI0
aI0
aI0
aI0
aI0
aI0
aI0
aa(lp16
I0
aI0
aI0
aI0
aI0
aI0
aI0
aI0
aa(lp17
I8
aI12
aI14
aI15
aI14
aI12
aI8
aI0
aa(lp18
I2
aI6
aI14
aI30
aI14
aI6
aI2
aI0
aa(lp19
I4
aI14
aI31
aI0
aI4
aI14
aI31
aI0
aa(lp20
I31
aI14
aI4
aI0
aI31
aI14
aI4
aI0
aa(lp21
I0
aI5
aI10
aI20
aI10
aI5
aI0
aI0
aa(lp22
I0
aI20
aI10
aI5
aI10
aI20
aI0
aI0
aa(lp23
I28
aI24
aI20
aI2
aI1
aI0
aI0
aI0
aa(lp24
I7
aI3
aI5
aI8
aI16
aI0
aI0
aI0
aa(lp25
I0
aI0
aI1
aI2
aI20
aI24
aI28
aI0
aa(lp26
I0
aI0
aI16
aI8
aI5
aI3
aI7
aI0
aa(lp27
I0
aI4
aI4
aI14
aI14
aI31
aI0
aI0
aa(lp28
I0
aI31
aI14
aI14
aI4
aI4
aI0
aI0
aa(lp29
I1
aI1
aI5
aI9
aI31
aI8
aI4
aI0
aa(lp30
I4
aI10
aI17
aI0
aI0
aI0
aI0
aI0
aa(lp31
I17
aI10
aI4
aI0
aI0
aI0
aI0
aI0
aa(lp32
I31
aI31
aI31
aI31
aI31
aI31
aI31
aI31
aa(lp33
I0
aI0
aI0
aI0
aI0
aI0
aI0
aI0
aa(lp34
I4
aI4
aI4
aI4
aI0
aI4
aI0
aI0
aa(lp35
I10
aI10
aI10
aI0
aI0
aI0
aI0
aI0
aa(lp36
I10
aI10
aI31
aI10
aI31
aI10
aI10
aI0
aa(lp37
I0
aI0
aI17
aI14
aI10
aI14
aI17
aI0
aa(lp38
I24
aI25
aI2
aI4
aI8
aI19
aI3
aI0
aa(lp39
I12
aI18
aI20
aI8
aI21
aI18
aI13
aI0
aa(lp40
I12
aI4
aI8
aI0
aI0
aI0
aI0
aI0
aa(lp41
I2
aI4
aI8
aI8
aI8
aI4
aI2
aI0
aa(lp42
I8
aI4
aI2
aI2
aI2
aI4
aI8
aI0
aa(lp43
I0
aI4
aI21
aI14
aI21
aI4
aI0
aI0
aa(lp44
I0
aI4
aI4
aI31
aI4
aI4
aI0
aI0
aa(lp45
I0
aI0
aI0
aI0
aI12
aI4
aI8
aI0
aa(lp46
I0
aI0
aI0
aI31
aI0
aI0
aI0
aI0
aa(lp47
I0
aI0
aI0
aI0
aI0
aI12
aI12
aI0
aa(lp48
I0
aI1
aI2
aI4
aI8
aI16
aI0
aI0
aa(lp49
I14
aI17
aI19
aI21
aI25
aI17
aI14
aI0
aa(lp50
I4
aI12
aI4
aI4
aI4
aI4
aI14
aI0
aa(lp51
I14
aI17
aI1
aI2
aI4
aI8
aI31
aI0
aa(lp52
I31
aI2
aI4
aI2
aI1
aI17
aI14
aI0
aa(lp53
I2
aI6
aI10
aI18
aI31
aI2
aI2
aI0
aa(lp54
I31
aI16
aI30
aI1
aI1
aI17
aI14
aI0
aa(lp55
I6
aI8
aI16
aI30
aI17
aI17
aI14
aI0
aa(lp56
I31
aI1
aI2
aI4
aI8
aI8
aI8
aI0
aa(lp57
I14
aI17
aI17
aI14
aI17
aI17
aI14
aI0
aa(lp58
I14
aI17
aI17
aI15
aI1
aI2
aI12
aI0
aa(lp59
I0
aI12
aI12
aI0
aI12
aI12
aI0
aI0
aa(lp60
I0
aI12
aI12
aI0
aI12
aI4
aI8
aI0
aa(lp61
I2
aI4
aI8
aI16
aI8
aI4
aI2
aI0
aa(lp62
I0
aI0
aI31
aI0
aI31
aI0
aI0
aI0
aa(lp63
I8
aI4
aI2
aI1
aI2
aI4
aI8
aI0
aa(lp64
I14
aI17
aI1
aI2
aI4
aI0
aI4
aI0
aa(lp65
I4
aI0
aI4
aI4
aI4
aI4
aI0
aI0
aa(lp66
I14
aI17
aI17
aI17
aI31
aI17
aI17
aI0
aa(lp67
I30
aI17
aI17
aI30
aI17
aI17
aI30
aI0
aa(lp68
I14
aI17
aI16
aI16
aI16
aI17
aI14
aI0
aa(lp69
I28
aI18
aI17
aI17
aI17
aI18
aI28
aI0
aa(lp70
I31
aI16
aI16
aI30
aI16
aI16
aI31
aI0
aa(lp71
I31
aI16
aI16
aI30
aI16
aI16
aI16
aI0
aa(lp72
I14
aI17
aI16
aI23
aI17
aI17
aI15
aI0
aa(lp73
I17
aI17
aI17
aI31
aI17
aI17
aI17
aI0
aa(lp74
I14
aI4
aI4
aI4
aI4
aI4
aI14
aI0
aa(lp75
I7
aI2
aI2
aI2
aI2
aI18
aI12
aI0
aa(lp76
I17
aI18
aI20
aI24
aI20
aI18
aI17
aI0
aa(lp77
I16
aI16
aI16
aI16
aI16
aI16
aI31
aI0
aa(lp78
I17
aI27
aI21
aI17
aI17
aI17
aI17
aI0
aa(lp79
I17
aI17
aI25
aI21
aI19
aI17
aI17
aI0
aa(lp80
I14
aI17
aI17
aI17
aI17
aI17
aI14
aI0
aa(lp81
I30
aI17
aI17
aI30
aI16
aI16
aI0
aI0
aa(lp82
I14
aI17
aI17
aI17
aI21
aI18
aI13
aI0
aa(lp83
I30
aI17
aI17
aI30
aI20
aI18
aI17
aI0
aa(lp84
I15
aI16
aI16
aI14
aI1
aI1
aI30
aI0
aa(lp85
I31
aI4
aI4
aI4
aI4
aI4
aI4
aI0
aa(lp86
I17
aI17
aI17
aI17
aI17
aI17
aI14
aI0
aa(lp87
I17
aI17
aI17
aI17
aI17
aI10
aI4
aI0
aa(lp88
I17
aI17
aI17
aI21
aI21
aI21
aI10
aI0
aa(lp89
I17
aI17
aI10
aI4
aI10
aI17
aI17
aI0
aa(lp90
I17
aI17
aI17
aI10
aI4
aI4
aI4
aI0
aa(lp91
I31
aI1
aI2
aI14
aI8
aI16
aI31
aI0
aa(lp92
I10
aI0
aI14
aI17
aI31
aI17
aI17
aI0
aa(lp93
I10
aI0
aI14
aI17
aI17
aI17
aI14
aI0
aa(lp94
I5
aI10
aI0
aI17
aI25
aI21
aI19
aI0
aa(lp95
I10
aI0
aI17
aI17
aI17
aI17
aI14
aI0
aa(lp96
I6
aI8
aI12
aI10
aI6
aI2
aI12
aI0
aa(lp97
I4
aI0
aI4
aI8
aI16
aI17
aI14
aI0
aa(lp98
I0
aI0
aI14
aI1
aI15
aI17
aI15
aI0
aa(lp99
I16
aI16
aI22
aI25
aI17
aI17
aI30
aI0
aa(lp100
I0
aI0
aI14
aI16
aI16
aI17
aI14
aI0
aa(lp101
I1
aI1
aI13
aI19
aI17
aI17
aI15
aI0
aa(lp102
I0
aI0
aI14
aI17
aI31
aI16
aI14
aI0
aa(lp103
I6
aI9
aI8
aI28
aI8
aI8
aI8
aI0
aa(lp104
I0
aI15
aI17
aI17
aI15
aI1
aI14
aI0
aa(lp105
I16
aI16
aI22
aI25
aI17
aI17
aI17
aI0
aa(lp106
I4
aI0
aI12
aI4
aI4
aI4
aI14
aI0
aa(lp107
I2
aI0
aI6
aI2
aI2
aI18
aI12
aI0
aa(lp108
I16
aI16
aI18
aI20
aI24
aI20
aI18
aI0
aa(lp109
I12
aI4
aI4
aI4
aI4
aI4
aI14
aI0
aa(lp110
I0
aI0
aI10
aI21
aI21
aI21
aI21
aI0
aa(lp111
I0
aI0
aI22
aI25
aI17
aI17
aI17
aI0
aa(lp112
I0
aI0
aI14
aI17
aI17
aI17
aI14
aI0
aa(lp113
I0
aI0
aI30
aI17
aI30
aI16
aI16
aI0
aa(lp114
I0
aI0
aI14
aI18
aI14
aI2
aI3
aI0
aa(lp115
I0
aI0
aI22
aI25
aI16
aI16
aI16
aI0
aa(lp116
I0
aI0
aI14
aI16
aI14
aI1
aI30
aI0
aa(lp117
I8
aI8
aI28
aI8
aI8
aI9
aI6
aI0
aa(lp118
I0
aI0
aI17
aI17
aI17
aI19
aI13
aI0
aa(lp119
I0
aI0
aI17
aI17
aI17
aI10
aI4
aI0
aa(lp120
I0
aI0
aI17
aI17
aI21
aI21
aI10
aI0
aa(lp121
I0
aI0
aI17
aI10
aI4
aI10
aI17
aI0
aa(lp122
I0
aI0
aI17
aI17
aI15
aI1
aI14
aI0
aa(lp123
I0
aI0
aI31
aI2
aI4
aI8
aI31
aI0
aa(lp124
I10
aI0
aI14
aI1
aI15
aI17
aI15
aI0
aa(lp125
I0
aI10
aI0
aI14
aI17
aI17
aI14
aI0
aa(lp126
I5
aI10
aI0
aI22
aI25
aI17
aI17
aI0
aa(lp127
I10
aI0
aI17
aI17
aI17
aI19
aI13
aI0
aa(lp128
I8
aI4
aI14
aI1
aI15
aI17
aI15
aI0
aa(lp129
I12
aI18
aI18
aI18
aI12
aI0
aI0
aI0
aa(lp130
I8
aI24
aI8
aI8
aI28
aI0
aI0
aI0
aa(lp131
I12
aI18
aI4
aI8
aI30
aI0
aI0
aI0
aa(lp132
I28
aI2
aI12
aI2
aI28
aI0
aI0
aI0
aa(lp133
I4
aI12
aI20
aI30
aI4
aI0
aI0
aI0
aa(lp134
I30
aI16
aI12
aI2
aI28
aI0
aI0
aI0
aa(lp135
I14
aI16
aI28
aI18
aI12
aI0
aI0
aI0
aa(lp136
I30
aI2
aI4
aI8
aI8
aI0
aI0
aI0
aa(lp137
I12
aI18
aI12
aI18
aI12
aI0
aI0
aI0
aa(lp138
I12
aI18
aI14
aI2
aI12
aI0
aI0
aI0
aa(lp139
I17
aI18
aI20
aI10
aI21
aI1
aI2
aI7
aa(lp140
I17
aI18
aI20
aI10
aI22
aI10
aI15
aI2
aa(lp141
I4
aI4
aI31
aI4
aI4
aI0
aI31
aI0
aa(lp142
I8
aI4
aI2
aI4
aI8
aI0
aI31
aI0
aa(lp143
I2
aI4
aI8
aI4
aI2
aI0
aI31
aI0
aa(lp144
I17
aI17
aI17
aI19
aI29
aI16
aI16
aI0
aa(lp145
I0
aI4
aI6
aI5
aI4
aI28
aI28
aI0
aa(lp146
I6
aI5
aI5
aI5
aI29
aI27
aI3
aI0
aa(lp147
I4
aI14
aI14
aI14
aI14
aI31
aI4
aI0
aa(lp148
I0
aI10
aI31
aI31
aI14
aI4
aI0
aI0
aa(lp149
I0
aI4
aI14
aI31
aI14
aI4
aI0
aI0
aa(lp150
I31
aI14
aI4
aI4
aI4
aI4
aI4
aI0
aa(lp151
I28
aI16
aI16
aI0
aI0
aI0
aI0
aI0
aa(lp152
I0
aI0
aI0
aI0
aI1
aI1
aI7
aI0
aa(lp153
I9
aI18
aI27
aI0
aI0
aI0
aI0
aI0
aa(lp154
I27
aI9
aI18
aI0
aI0
aI0
aI0
aI0
aa(lp155
I2
aI4
aI8
aI8
aI8
aI4
aI2
aI0
aa(lp156
I8
aI4
aI2
aI2
aI2
aI4
aI8
aI0
aa(lp157
I0
aI0
aI9
aI21
aI18
aI18
aI13
aI0
aa(lp158
I0
aI0
aI14
aI16
aI12
aI17
aI14
aI0
aa(lp159
I6
aI9
aI4
aI10
aI17
aI17
aI14
aI0
aa(lp160
I0
aI0
aI11
aI21
aI26
aI0
aI0
aI0
aa(lp161
I14
aI19
aI21
aI23
aI16
aI14
aI0
aI0
aa(lp162
I6
aI8
aI8
aI28
aI8
aI9
aI22
aI0
aa(lp163
I4
aI15
aI20
aI14
aI5
aI30
aI4
aI0
aa(lp164
I17
aI10
aI31
aI4
aI31
aI4
aI4
aI0
aa(lp165
I8
aI4
aI14
aI17
aI31
aI16
aI14
aI0
aa(lp166
I2
aI4
aI14
aI17
aI31
aI16
aI14
aI0
aa(lp167
I8
aI4
aI17
aI17
aI17
aI19
aI13
aI0
aa(lp168
I8
aI4
aI0
aI12
aI4
aI4
aI14
aI0
aa(lp169
I8
aI4
aI14
aI17
aI17
aI17
aI14
aI0
aa(lp170
I14
aI17
aI16
aI16
aI15
aI4
aI12
aI0
aa(lp171
I28
aI18
aI28
aI16
aI0
aI0
aI0
aI0
aa(lp172
I14
aI19
aI21
aI21
aI21
aI25
aI14
aI0
aa(lp173
I0
aI0
aI14
aI19
aI21
aI25
aI14
aI0
aa(lp174
I20
aI26
aI16
aI16
aI0
aI0
aI0
aI0
aa(lp175
I4
aI0
aI14
aI17
aI31
aI17
aI17
aI0
aa(lp176
I4
aI0
aI14
aI1
aI15
aI17
aI15
aI0
aa(lp177
I0
aI4
aI10
aI17
aI17
aI31
aI0
aI0
aa(lp178
I4
aI14
aI20
aI20
aI21
aI14
aI4
aI0
aa(lp179
I14
aI4
aI14
aI21
aI14
aI4
aI14
aI0
aa(lp180
I0
aI0
aI31
aI4
aI4
aI4
aI6
aI0
aa(lp181
I16
aI8
aI4
aI4
aI10
aI10
aI17
aI0
aa(lp182
I0
aI14
aI17
aI17
aI17
aI10
aI27
aI0
aa(lp183
I0
aI0
aI31
aI10
aI10
aI10
aI10
aI0
aa(lp184
I21
aI21
aI21
aI14
aI4
aI4
aI4
aI0
aa(lp185
I31
aI16
aI8
aI4
aI8
aI16
aI31
aI0
aa(lp186
I4
aI10
aI17
aI31
aI17
aI10
aI4
aI0
aa(lp187
I0
aI31
aI0
aI14
aI0
aI31
aI0
aI0
aa(lp188
I0
aI14
aI31
aI31
aI31
aI14
aI0
aI0
aa(lp189
I7
aI10
aI18
aI31
aI18
aI18
aI19
aI0
aa(lp190
I0
aI0
aI26
aI5
aI15
aI20
aI31
aI0
aa(lp191
I14
aI17
aI30
aI17
aI25
aI22
aI16
aI0
aa(lp192
I2
aI4
aI30
aI16
aI28
aI16
aI30
aI0
aa(lp193
I31
aI17
aI16
aI16
aI16
aI16
aI0
aI0
aa(lp194
I4
aI4
aI10
aI10
aI17
aI17
aI17
aI0
aa(lp195
I31
aI17
aI17
aI17
aI17
aI17
aI17
aI0
aa(lp196
I10
aI21
aI21
aI4
aI4
aI4
aI4
aI0
aa(lp197
I0
aI0
aI0
aI0
aI0
aI0
aI31
aI0
aa(lp198
I8
aI4
aI30
aI16
aI28
aI16
aI30
aI0
aa(lp199
I4
aI10
aI30
aI16
aI28
aI16
aI30
aI0
aa(lp200
I4
aI10
aI14
aI17
aI31
aI16
aI14
aI0
aa(lp201
I0
aI14
aI16
aI16
aI14
aI4
aI12
aI0
aa(lp202
I10
aI4
aI15
aI17
aI15
aI1
aI14
aI0
aa(lp203
I15
aI16
aI14
aI1
aI1
aI30
aI4
aI0
aa(lp204
I0
aI14
aI16
aI14
aI1
aI30
aI4
aI0
aa(lp205
I4
aI0
aI14
aI4
aI4
aI4
aI14
aI0
aa(lp206
I0
aI0
aI12
aI4
aI4
aI4
aI14
aI0
aa(lp207
I0
aI8
aI21
aI2
aI0
aI0
aI0
aI0
aa(lp208
I0
aI4
aI10
aI17
aI10
aI4
aI0
aI0
aa(lp209
I0
aI31
aI31
aI31
aI31
aI31
aI0
aI0
aa(lp210
I0
aI30
aI30
aI30
aI30
aI30
aI0
aI0
aa(lp211
I0
aI30
aI30
aI30
aI30
aI30
aI0
aI0
aa(lp212
I0
aI24
aI24
aI24
aI24
aI24
aI0
aI0
aa(lp213
I0
aI16
aI16
aI16
aI16
aI16
aI0
aI0
aa(lp214
I2
aI5
aI4
aI31
aI4
aI20
aI8
aI0
aa(lp215
I31
aI31
aI31
aI31
aI31
aI31
aI31
aI0
aa(lp216
I30
aI30
aI30
aI30
aI30
aI30
aI30
aI0
aa(lp217
I28
aI28
aI28
aI28
aI28
aI28
aI28
aI0
aa(lp218
I24
aI24
aI24
aI24
aI24
aI24
aI24
aI0
aa(lp219
I16
aI16
aI16
aI16
aI16
aI16
aI16
aI0
aa(lp220
I28
aI18
aI28
aI16
aI18
aI23
aI18
aI3
aa(lp221
I0
aI0
aI30
aI18
aI18
aI30
aI0
aI0
aa(lp222
I0
aI0
aI0
aI12
aI12
aI0
aI0
aI0
aa(lp223
I4
aI14
aI21
aI4
aI4
aI4
aI4
aI0
aa(lp224
I0
aI4
aI2
aI31
aI2
aI4
aI0
aI0
aa(lp225
I4
aI4
aI4
aI21
aI14
aI4
aI0
aI0
aa(lp226
I0
aI4
aI8
aI31
aI8
aI4
aI0
aI0
aa(lp227
I2
aI4
aI14
aI17
aI31
aI17
aI17
aI0
aa(lp228
I2
aI4
aI14
aI4
aI4
aI14
aI0
aI0
aa(lp229
I2
aI4
aI14
aI17
aI17
aI17
aI14
aI0
aa(lp230
I2
aI4
aI17
aI17
aI17
aI17
aI14
aI0
aa(lp231
I2
aI4
aI17
aI10
aI4
aI4
aI4
aI0
aa(lp232
I2
aI4
aI14
aI1
aI15
aI17
aI15
aI0
aa(lp233
I2
aI4
aI0
aI12
aI4
aI4
aI14
aI0
aa(lp234
I0
aI2
aI4
aI14
aI17
aI17
aI14
aI0
aa(lp235
I2
aI4
aI17
aI17
aI17
aI19
aI13
aI0
aa(lp236
I2
aI4
aI17
aI17
aI15
aI1
aI14
aI0
aa(lp237
I4
aI10
aI14
aI17
aI17
aI17
aI14
aI0
aa(lp238
I4
aI10
aI14
aI17
aI17
aI17
aI14
aI0
aa(lp239
I4
aI0
aI17
aI17
aI17
aI17
aI14
aI0
aa(lp240
I4
aI0
aI17
aI17
aI17
aI19
aI13
aI0
aa(lp241
I10
aI4
aI14
aI17
aI16
aI17
aI14
aI0
aa(lp242
I10
aI4
aI31
aI16
aI28
aI16
aI31
aI0
aa(lp243
I10
aI4
aI30
aI17
aI30
aI18
aI17
aI0
aa(lp244
I10
aI4
aI15
aI16
aI14
aI1
aI30
aI0
aa(lp245
I10
aI4
aI31
aI1
aI14
aI16
aI31
aI0
aa(lp246
I0
aI10
aI4
aI14
aI16
aI16
aI14
aI0
aa(lp247
I10
aI4
aI14
aI17
aI31
aI16
aI14
aI0
aa(lp248
I10
aI4
aI22
aI25
aI16
aI16
aI16
aI0
aa(lp249
I10
aI4
aI14
aI16
aI14
aI1
aI30
aI0
aa(lp250
I10
aI4
aI31
aI2
aI4
aI8
aI31
aI0
aa(lp251
I14
aI8
aI8
aI8
aI8
aI8
aI14
aI0
aa(lp252
I0
aI16
aI8
aI4
aI2
aI1
aI0
aI0
aa(lp253
I14
aI2
aI2
aI2
aI2
aI2
aI14
aI0
aa(lp254
I14
aI2
aI2
aI2
aI2
aI2
aI14
aI0
aa(lp255
I4
aI4
aI4
aI0
aI4
aI4
aI4
aI0
aa(lp256
I8
aI4
aI4
aI2
aI4
aI4
aI8
aI0
aa.